; Function Attrs: mustprogress uwtable
define internal noundef i32 @"_ZNSt17_Function_handlerIFN14ArgumentParser8ContinueESt17basic_string_viewIcSt11char_traitsIcEEEZNS0_8Instance4BindERNS0_10MaybeEmptyISt6vectorINSt7__cxx1112basic_stringIcS4_SaIcEEESaISD_EEEEE3$_0E9_M_invokeERKSt9_Any_dataOS5_"(ptr noundef nonnull readonly align 8 captures(none) dereferenceable(16) %0, ptr noundef nonnull readonly align 8 captures(none) dereferenceable(16) %1) #4 align 2 {
  %3 = alloca %"class.std::basic_string_view", align 8
  %.val = load ptr, ptr %0, align 8, !tbaa !177
  %.val2 = load i64, ptr %1, align 8, !tbaa !9
  %4 = getelementptr inbounds nuw i8, ptr %1, i64 8
  %.val3 = load ptr, ptr %4, align 8, !tbaa !11
  call void @llvm.lifetime.start.p0(i64 16, ptr nonnull %3)
  store i64 %.val2, ptr %3, align 8
  %5 = getelementptr inbounds nuw i8, ptr %3, i64 8
  store ptr %.val3, ptr %5, align 8
  %6 = call noundef nonnull align 8 dereferenceable(32) ptr @_ZNSt6vectorINSt7__cxx1112basic_stringIcSt11char_traitsIcESaIcEEESaIS5_EE12emplace_backIJRSt17basic_string_viewIcS3_EEEERS5_DpOT_(ptr noundef nonnull align 8 dereferenceable(24) %.val, ptr noundef nonnull align 8 dereferenceable(16) %3)
  call void @llvm.lifetime.end.p0(i64 16, ptr nonnull %3)
  ret i32 1
}